target datalayout = "e-m:e-p270:32:32-p271:32:32-p272:64:64-i64:64-i128:128-f80:128-n8:16:32:64-S128"
target triple = "x86_64-pc-linux-gnu"

%struct.rb_io = type { i64, ptr, i32, i32, i32, i32, i64, ptr, %struct.rb_io_internal_buffer, %struct.rb_io_internal_buffer, i64, %struct.rb_io_encoding, ptr, %struct.rb_io_internal_buffer, ptr, i64, i32, i32, i64, i64, i64 }
%struct.rb_io_encoding = type { ptr, ptr, i32, i64 }
%struct.rb_io_internal_buffer = type <{ ptr, i32, i32, i32 }>

; Function Attrs: nounwind sspstrong uwtable
define internal void @fptr_waitpid(ptr noundef %0, i32 noundef %1) #0 {
  %3 = alloca ptr, align 8
  %4 = alloca i32, align 4
  %5 = alloca i32, align 4
  store ptr %0, ptr %3, align 8, !tbaa !7
  store i32 %1, ptr %4, align 4, !tbaa !13
  call void @llvm.lifetime.start.p0(i64 4, ptr %5) #28
  %6 = load ptr, ptr %3, align 8, !tbaa !7
  %7 = getelementptr inbounds nuw %struct.rb_io, ptr %6, i32 0, i32 4
  %8 = load i32, ptr %7, align 8, !tbaa !85
  %9 = icmp ne i32 %8, 0
  br i1 %9, label %10, label %20

10:                                               ; preds = %2
  call void @rb_last_status_clear()
  %11 = load ptr, ptr %3, align 8, !tbaa !7
  %12 = getelementptr inbounds nuw %struct.rb_io, ptr %11, i32 0, i32 4
  %13 = load i32, ptr %12, align 8, !tbaa !85
  %14 = load i32, ptr %4, align 4, !tbaa !13
  %15 = icmp ne i32 %14, 0
  %16 = select i1 %15, i32 1, i32 0
  %17 = call i32 @rb_waitpid(i32 noundef %13, ptr noundef %5, i32 noundef %16)
  %18 = load ptr, ptr %3, align 8, !tbaa !7
  %19 = getelementptr inbounds nuw %struct.rb_io, ptr %18, i32 0, i32 4
  store i32 0, ptr %19, align 8, !tbaa !85
  br label %20

20:                                               ; preds = %10, %2
  call void @llvm.lifetime.end.p0(i64 4, ptr %5) #28
  ret void
}

; Function Attrs: nounwind sspstrong uwtable
define internal i64 @pipe_close(i64 noundef %0) #0 {
  %2 = alloca i64, align 8
  %3 = alloca ptr, align 8
  store i64 %0, ptr %2, align 8, !tbaa !32
  call void @llvm.lifetime.start.p0(i64 8, ptr %3) #28
  %4 = load i64, ptr %2, align 8, !tbaa !32
  %5 = call ptr @io_close_fptr(i64 noundef %4)
  store ptr %5, ptr %3, align 8, !tbaa !7
  %6 = load ptr, ptr %3, align 8, !tbaa !7
  %7 = icmp ne ptr %6, null
  br i1 %7, label %8, label %12

8:                                                ; preds = %1
  %9 = load ptr, ptr %3, align 8, !tbaa !7
  %10 = call i64 @rb_thread_current()
  %11 = call i32 @rb_thread_to_be_killed(i64 noundef %10)
  call void @fptr_waitpid(ptr noundef %9, i32 noundef %11)
  br label %12

12:                                               ; preds = %8, %1
  call void @llvm.lifetime.end.p0(i64 8, ptr %3) #28
  ret i64 4
}