; Function Attrs: nounwind sspstrong uwtable
define internal noundef i64 @pipe_close(i64 noundef %0) #0 {
  %2 = alloca i32, align 4
  %3 = tail call fastcc ptr @io_close_fptr(i64 noundef %0)
  %.not = icmp eq ptr %3, null
  br i1 %.not, label %13, label %4

4:                                                ; preds = %1
  %5 = tail call i64 @rb_thread_current() #28
  %6 = tail call i32 @rb_thread_to_be_killed(i64 noundef %5) #28
  call void @llvm.lifetime.start.p0(i64 4, ptr nonnull %2) #28
  %7 = getelementptr inbounds nuw i8, ptr %3, i64 24
  %8 = load i32, ptr %7, align 8, !tbaa !116
  %.not.i = icmp eq i32 %8, 0
  br i1 %.not.i, label %fptr_waitpid.exit, label %9

9:                                                ; preds = %4
  tail call void @rb_last_status_clear() #28
  %10 = load i32, ptr %7, align 8, !tbaa !116
  %.not3.i = icmp ne i32 %6, 0
  %11 = zext i1 %.not3.i to i32
  %12 = call i32 @rb_waitpid(i32 noundef %10, ptr noundef nonnull %2, i32 noundef %11) #28
  store i32 0, ptr %7, align 8, !tbaa !116
  br label %fptr_waitpid.exit

fptr_waitpid.exit:                                ; preds = %4, %9
  call void @llvm.lifetime.end.p0(i64 4, ptr nonnull %2) #28
  br label %13

13:                                               ; preds = %fptr_waitpid.exit, %1
  ret i64 4
}